target datalayout = "e-m:e-p270:32:32-p271:32:32-p272:64:64-i64:64-i128:128-f80:128-n8:16:32:64-S128"
target triple = "x86_64-pc-linux-gnu"

; Function Attrs: mustprogress nounwind uwtable
define noundef i32 @_ZN4Cube9FaceIndexEiii(i32 noundef %0, i32 noundef %1, i32 noundef %2) #1 align 2 {
  %4 = alloca i32, align 4
  %5 = alloca i32, align 4
  %6 = alloca i32, align 4
  %7 = alloca i32, align 4
  store i32 %0, ptr %5, align 4
  store i32 %1, ptr %6, align 4
  store i32 %2, ptr %7, align 4
  %8 = load i32, ptr %5, align 4
  %9 = icmp slt i32 %8, 0
  br i1 %9, label %10, label %11

10:                                               ; preds = %3
  store i32 0, ptr %4, align 4
  br label %32

11:                                               ; preds = %3
  %12 = load i32, ptr %5, align 4
  %13 = icmp sgt i32 %12, 0
  br i1 %13, label %14, label %15

14:                                               ; preds = %11
  store i32 1, ptr %4, align 4
  br label %32

15:                                               ; preds = %11
  %16 = load i32, ptr %6, align 4
  %17 = icmp slt i32 %16, 0
  br i1 %17, label %18, label %19

18:                                               ; preds = %15
  store i32 2, ptr %4, align 4
  br label %32

19:                                               ; preds = %15
  %20 = load i32, ptr %6, align 4
  %21 = icmp sgt i32 %20, 0
  br i1 %21, label %22, label %23

22:                                               ; preds = %19
  store i32 3, ptr %4, align 4
  br label %32

23:                                               ; preds = %19
  %24 = load i32, ptr %7, align 4
  %25 = icmp slt i32 %24, 0
  br i1 %25, label %26, label %27

26:                                               ; preds = %23
  store i32 4, ptr %4, align 4
  br label %32

27:                                               ; preds = %23
  %28 = load i32, ptr %7, align 4
  %29 = icmp sgt i32 %28, 0
  br i1 %29, label %30, label %31

30:                                               ; preds = %27
  store i32 5, ptr %4, align 4
  br label %32

31:                                               ; preds = %27
  store i32 -1, ptr %4, align 4
  br label %32

32:                                               ; preds = %31, %30, %26, %22, %18, %14, %10
  %33 = load i32, ptr %4, align 4
  ret i32 %33
}

; Function Attrs: mustprogress nounwind uwtable
define void @_ZN4Cube15FactorEdgeIndexEiRiS0_S0_(i32 noundef %0, ptr noundef nonnull align 4 dereferenceable(4) %1, ptr noundef nonnull align 4 dereferenceable(4) %2, ptr noundef nonnull align 4 dereferenceable(4) %3) #1 align 2 {
  %5 = alloca i32, align 4
  %6 = alloca ptr, align 8
  %7 = alloca ptr, align 8
  %8 = alloca ptr, align 8
  store i32 %0, ptr %5, align 4
  store ptr %1, ptr %6, align 8
  store ptr %2, ptr %7, align 8
  store ptr %3, ptr %8, align 8
  %9 = load i32, ptr %5, align 4
  %10 = ashr i32 %9, 2
  %11 = load ptr, ptr %6, align 8
  store i32 %10, ptr %11, align 4
  %12 = load i32, ptr %5, align 4
  %13 = and i32 %12, 1
  %14 = load ptr, ptr %7, align 8
  store i32 %13, ptr %14, align 4
  %15 = load i32, ptr %5, align 4
  %16 = and i32 %15, 2
  %17 = ashr i32 %16, 1
  %18 = load ptr, ptr %8, align 8
  store i32 %17, ptr %18, align 4
  ret void
}

; Function Attrs: mustprogress nounwind uwtable
define void @_ZN4Cube19FacesAdjacentToEdgeEiRiS0_(i32 noundef %0, ptr noundef nonnull align 4 dereferenceable(4) %1, ptr noundef nonnull align 4 dereferenceable(4) %2) #1 align 2 {
  %4 = alloca i32, align 4
  %5 = alloca ptr, align 8
  %6 = alloca ptr, align 8
  %7 = alloca i32, align 4
  %8 = alloca i32, align 4
  %9 = alloca i32, align 4
  store i32 %0, ptr %4, align 4
  store ptr %1, ptr %5, align 8
  store ptr %2, ptr %6, align 8
  %10 = load i32, ptr %4, align 4
  call void @_ZN4Cube15FactorEdgeIndexEiRiS0_S0_(i32 noundef %10, ptr noundef nonnull align 4 dereferenceable(4) %7, ptr noundef nonnull align 4 dereferenceable(4) %8, ptr noundef nonnull align 4 dereferenceable(4) %9)
  %11 = load i32, ptr %8, align 4
  %12 = shl i32 %11, 1
  store i32 %12, ptr %8, align 4
  %13 = load i32, ptr %9, align 4
  %14 = shl i32 %13, 1
  store i32 %14, ptr %9, align 4
  %15 = load i32, ptr %8, align 4
  %16 = add nsw i32 %15, -1
  store i32 %16, ptr %8, align 4
  %17 = load i32, ptr %9, align 4
  %18 = add nsw i32 %17, -1
  store i32 %18, ptr %9, align 4
  %19 = load i32, ptr %7, align 4
  switch i32 %19, label %41 [
    i32 0, label %20
    i32 1, label %27
    i32 2, label %34
  ]

20:                                               ; preds = %3
  %21 = load i32, ptr %8, align 4
  %22 = call noundef i32 @_ZN4Cube9FaceIndexEiii(i32 noundef 0, i32 noundef %21, i32 noundef 0)
  %23 = load ptr, ptr %5, align 8
  store i32 %22, ptr %23, align 4
  %24 = load i32, ptr %9, align 4
  %25 = call noundef i32 @_ZN4Cube9FaceIndexEiii(i32 noundef 0, i32 noundef 0, i32 noundef %24)
  %26 = load ptr, ptr %6, align 8
  store i32 %25, ptr %26, align 4
  br label %41

27:                                               ; preds = %3
  %28 = load i32, ptr %8, align 4
  %29 = call noundef i32 @_ZN4Cube9FaceIndexEiii(i32 noundef %28, i32 noundef 0, i32 noundef 0)
  %30 = load ptr, ptr %5, align 8
  store i32 %29, ptr %30, align 4
  %31 = load i32, ptr %9, align 4
  %32 = call noundef i32 @_ZN4Cube9FaceIndexEiii(i32 noundef 0, i32 noundef 0, i32 noundef %31)
  %33 = load ptr, ptr %6, align 8
  store i32 %32, ptr %33, align 4
  br label %41

34:                                               ; preds = %3
  %35 = load i32, ptr %8, align 4
  %36 = call noundef i32 @_ZN4Cube9FaceIndexEiii(i32 noundef %35, i32 noundef 0, i32 noundef 0)
  %37 = load ptr, ptr %5, align 8
  store i32 %36, ptr %37, align 4
  %38 = load i32, ptr %9, align 4
  %39 = call noundef i32 @_ZN4Cube9FaceIndexEiii(i32 noundef 0, i32 noundef %38, i32 noundef 0)
  %40 = load ptr, ptr %6, align 8
  store i32 %39, ptr %40, align 4
  br label %41

41:                                               ; preds = %34, %27, %20, %3
  ret void
}