; Function Attrs: mustprogress nofree norecurse nosync nounwind willreturn memory(argmem: write) uwtable
define void @_ZN4Cube19FacesAdjacentToEdgeEiRiS0_(i32 noundef %0, ptr noundef nonnull writeonly align 4 captures(none) dereferenceable(4) %1, ptr noundef nonnull writeonly align 4 captures(none) dereferenceable(4) %2) local_unnamed_addr #1 align 2 {
  %4 = ashr i32 %0, 2
  %5 = and i32 %0, 2
  %6 = shl i32 %0, 1
  %7 = and i32 %6, 2
  switch i32 %4, label %12 [
    i32 0, label %_ZN4Cube9FaceIndexEiii.exit
    i32 1, label %_ZN4Cube9FaceIndexEiii.exit9
    i32 2, label %_ZN4Cube9FaceIndexEiii.exit16
  ]

_ZN4Cube9FaceIndexEiii.exit:                      ; preds = %3
  %8 = icmp eq i32 %7, 0
  %spec.select = select i1 %8, i32 2, i32 3
  store i32 %spec.select, ptr %1, align 4
  %9 = icmp eq i32 %5, 0
  %.0.i6 = select i1 %9, i32 4, i32 5
  br label %.sink.split

_ZN4Cube9FaceIndexEiii.exit9:                     ; preds = %3
  %.lobit30 = lshr exact i32 %7, 1
  store i32 %.lobit30, ptr %1, align 4
  %10 = icmp eq i32 %5, 0
  %.0.i12 = select i1 %10, i32 4, i32 5
  br label %.sink.split

_ZN4Cube9FaceIndexEiii.exit16:                    ; preds = %3
  %.lobit = lshr exact i32 %7, 1
  store i32 %.lobit, ptr %1, align 4
  %11 = icmp eq i32 %5, 0
  %.0.i18 = select i1 %11, i32 2, i32 3
  br label %.sink.split

.sink.split:                                      ; preds = %_ZN4Cube9FaceIndexEiii.exit, %_ZN4Cube9FaceIndexEiii.exit9, %_ZN4Cube9FaceIndexEiii.exit16
  %.0.i18.sink = phi i32 [ %.0.i18, %_ZN4Cube9FaceIndexEiii.exit16 ], [ %.0.i12, %_ZN4Cube9FaceIndexEiii.exit9 ], [ %.0.i6, %_ZN4Cube9FaceIndexEiii.exit ]
  store i32 %.0.i18.sink, ptr %2, align 4
  br label %12

12:                                               ; preds = %.sink.split, %3
  ret void
}